target datalayout = "e-m:e-p270:32:32-p271:32:32-p272:64:64-i64:64-i128:128-f80:128-n8:16:32:64-S128"
target triple = "x86_64-pc-linux-gnu"

%struct._rtpstream_info = type { %struct._rtpstream_id, i8, ptr, [256 x ptr], ptr, i8, i32, i8, i32, i32, i32, ptr, ptr, %struct.nstime_t, %struct.nstime_t, %struct.nstime_t, i16, i8, i8, %struct._tap_rtp_stat_t, i8, ptr }
%struct._rtpstream_id = type { %struct._address, i16, %struct._address, i16, i32 }
%struct._address = type { i32, i32, ptr, ptr }
%struct.nstime_t = type { i64, i32 }
%struct._tap_rtp_stat_t = type { i8, i32, i16, i64, i64, double, [300 x %struct._bw_history_item], i16, i16, i32, i32, double, double, double, double, double, double, double, double, double, double, double, double, double, double, double, double, double, double, double, i32, i32, i32, i32, i32, i16, i32, i32, i32 }
%struct._bw_history_item = type { double, i32 }
%struct._GList = type { ptr, ptr, ptr }

; Function Attrs: null_pointer_is_valid sspstrong uwtable
define hidden i32 @rtpstream_to_hash(ptr noundef %0) #2 {
  %2 = alloca i32, align 4
  %3 = alloca ptr, align 8
  store ptr %0, ptr %3, align 8
  %4 = load ptr, ptr %3, align 8
  %5 = icmp ne ptr %4, null
  br i1 %5, label %6, label %10

6:                                                ; preds = %1
  %7 = load ptr, ptr %3, align 8
  %8 = getelementptr inbounds nuw %struct._rtpstream_info, ptr %7, i32 0, i32 0
  %9 = call i32 @rtpstream_id_to_hash(ptr noundef %8)
  store i32 %9, ptr %2, align 4
  br label %11

10:                                               ; preds = %1
  store i32 0, ptr %2, align 4
  br label %11

11:                                               ; preds = %10, %6
  %12 = load i32, ptr %2, align 4
  ret i32 %12
}

; Function Attrs: null_pointer_is_valid sspstrong uwtable
define hidden ptr @rtpstream_info_multihash_lookup(ptr noundef %0, ptr noundef %1) #2 {
  %3 = alloca ptr, align 8
  %4 = alloca ptr, align 8
  %5 = alloca ptr, align 8
  %6 = alloca ptr, align 8
  %7 = alloca ptr, align 8
  %8 = alloca i32, align 4
  store ptr %0, ptr %4, align 8
  store ptr %1, ptr %5, align 8
  call void @llvm.lifetime.start.p0(i64 8, ptr %6) #17
  %9 = load ptr, ptr %4, align 8
  %10 = load ptr, ptr %5, align 8
  %11 = call i32 @rtpstream_to_hash(ptr noundef %10)
  %12 = zext i32 %11 to i64
  %13 = inttoptr i64 %12 to ptr
  %14 = call ptr @g_hash_table_lookup(ptr noundef %9, ptr noundef %13)
  store ptr %14, ptr %6, align 8
  %15 = load ptr, ptr %6, align 8
  %16 = icmp ne ptr %15, null
  br i1 %16, label %17, label %48

17:                                               ; preds = %2
  call void @llvm.lifetime.start.p0(i64 8, ptr %7) #17
  %18 = load ptr, ptr %6, align 8
  %19 = call ptr @g_list_first(ptr noundef %18)
  store ptr %19, ptr %7, align 8
  br label %20

20:                                               ; preds = %42, %17
  %21 = load ptr, ptr %7, align 8
  %22 = icmp ne ptr %21, null
  br i1 %22, label %23, label %44

23:                                               ; preds = %20
  %24 = load ptr, ptr %5, align 8
  %25 = load ptr, ptr %7, align 8
  %26 = getelementptr inbounds nuw %struct._GList, ptr %25, i32 0, i32 0
  %27 = load ptr, ptr %26, align 8
  %28 = getelementptr inbounds nuw %struct._rtpstream_info, ptr %27, i32 0, i32 0
  %29 = call zeroext i1 @rtpstream_id_equal(ptr noundef %24, ptr noundef %28, i32 noundef 1)
  br i1 %29, label %30, label %34

30:                                               ; preds = %23
  %31 = load ptr, ptr %7, align 8
  %32 = getelementptr inbounds nuw %struct._GList, ptr %31, i32 0, i32 0
  %33 = load ptr, ptr %32, align 8
  store ptr %33, ptr %3, align 8
  store i32 1, ptr %8, align 4
  br label %45

34:                                               ; preds = %23
  %35 = load ptr, ptr %7, align 8
  %36 = icmp ne ptr %35, null
  br i1 %36, label %37, label %41

37:                                               ; preds = %34
  %38 = load ptr, ptr %7, align 8
  %39 = getelementptr inbounds nuw %struct._GList, ptr %38, i32 0, i32 1
  %40 = load ptr, ptr %39, align 8
  br label %42

41:                                               ; preds = %34
  br label %42

42:                                               ; preds = %41, %37
  %43 = phi ptr [ %40, %37 ], [ null, %41 ]
  store ptr %43, ptr %7, align 8
  br label %20, !llvm.loop !12

44:                                               ; preds = %20
  store i32 0, ptr %8, align 4
  br label %45

45:                                               ; preds = %44, %30
  call void @llvm.lifetime.end.p0(i64 8, ptr %7) #17
  %46 = load i32, ptr %8, align 4
  switch i32 %46, label %49 [
    i32 0, label %47
  ]

47:                                               ; preds = %45
  br label %48

48:                                               ; preds = %47, %2
  store ptr null, ptr %3, align 8
  store i32 1, ptr %8, align 4
  br label %49

49:                                               ; preds = %48, %45
  call void @llvm.lifetime.end.p0(i64 8, ptr %6) #17
  %50 = load ptr, ptr %3, align 8
  ret ptr %50
}