; Function Attrs: null_pointer_is_valid sspstrong uwtable
define hidden ptr @rtpstream_info_multihash_lookup(ptr noundef %0, ptr noundef %1) local_unnamed_addr #1 {
  %.not.i = icmp eq ptr %1, null
  br i1 %.not.i, label %rtpstream_to_hash.exit, label %3

3:                                                ; preds = %2
  %4 = tail call i32 @rtpstream_id_to_hash(ptr noundef nonnull %1)
  %5 = zext i32 %4 to i64
  %6 = inttoptr i64 %5 to ptr
  br label %rtpstream_to_hash.exit

rtpstream_to_hash.exit:                           ; preds = %2, %3
  %.0.i = phi ptr [ %6, %3 ], [ null, %2 ]
  %7 = tail call ptr @g_hash_table_lookup(ptr noundef %0, ptr noundef %.0.i)
  %.not = icmp eq ptr %7, null
  br i1 %.not, label %.thread, label %8

8:                                                ; preds = %rtpstream_to_hash.exit
  %9 = tail call ptr @g_list_first(ptr noundef nonnull %7)
  %.not1417 = icmp eq ptr %9, null
  br i1 %.not1417, label %.thread, label %.lr.ph

.lr.ph:                                           ; preds = %8, %12
  %.01118 = phi ptr [ %14, %12 ], [ %9, %8 ]
  %10 = load ptr, ptr %.01118, align 8
  %11 = tail call zeroext i1 @rtpstream_id_equal(ptr noundef %1, ptr noundef %10, i32 noundef 1)
  br i1 %11, label %15, label %12

12:                                               ; preds = %.lr.ph
  %13 = getelementptr inbounds nuw i8, ptr %.01118, i64 8
  %14 = load ptr, ptr %13, align 8
  %.not14 = icmp eq ptr %14, null
  br i1 %.not14, label %.thread, label %.lr.ph, !llvm.loop !10

15:                                               ; preds = %.lr.ph
  %16 = load ptr, ptr %.01118, align 8
  br label %.thread

.thread:                                          ; preds = %12, %8, %rtpstream_to_hash.exit, %15
  %.1 = phi ptr [ %16, %15 ], [ null, %rtpstream_to_hash.exit ], [ null, %8 ], [ null, %12 ]
  ret ptr %.1
}